; Function Attrs: mustprogress uwtable
define noundef ptr @_ZNK2cv2ml6KDTree8getPointEiPi(ptr noundef nonnull readonly align 8 captures(none) dereferenceable(152) %0, i32 noundef %1, ptr noundef writeonly %2) local_unnamed_addr #4 align 2 personality ptr @__gxx_personality_v0 {
  %4 = alloca %"class.std::__cxx11::basic_string", align 8
  %5 = alloca %"class.std::allocator.5", align 1
  %6 = getelementptr inbounds nuw i8, ptr %0, i64 32
  %7 = load i32, ptr %6, align 8, !tbaa !123
  %8 = icmp ult i32 %1, %7
  br i1 %8, label %19, label %9

9:                                                ; preds = %3
  call void @llvm.lifetime.start.p0(i64 32, ptr nonnull %4) #15
  call void @llvm.lifetime.start.p0(i64 1, ptr nonnull %5) #15
  call void @_ZNSt7__cxx1112basic_stringIcSt11char_traitsIcESaIcEEC2EPKcRKS3_(ptr noundef nonnull align 8 dereferenceable(32) %4, ptr noundef nonnull @.str.9, ptr noundef nonnull align 1 dereferenceable(1) %5)
  invoke void @_ZN2cv5errorEiRKNSt7__cxx1112basic_stringIcSt11char_traitsIcESaIcEEEPKcS9_i(i32 noundef -215, ptr noundef nonnull align 8 dereferenceable(32) %4, ptr noundef nonnull @__func__._ZNK2cv2ml6KDTree8getPointEiPi, ptr noundef nonnull @.str.1, i32 noundef 517) #17
          to label %10 unwind label %11

10:                                               ; preds = %9
  unreachable

11:                                               ; preds = %9
  %12 = landingpad { ptr, i32 }
          cleanup
  %13 = load ptr, ptr %4, align 8, !tbaa !39
  %14 = getelementptr inbounds nuw i8, ptr %4, i64 16
  %15 = icmp eq ptr %13, %14
  br i1 %15, label %_ZNKSt7__cxx1112basic_stringIcSt11char_traitsIcESaIcEE11_M_is_localEv.exit.thread.i.i, label %_ZNKSt7__cxx1112basic_stringIcSt11char_traitsIcESaIcEE11_M_is_localEv.exit.i.i

_ZNKSt7__cxx1112basic_stringIcSt11char_traitsIcESaIcEE11_M_is_localEv.exit.thread.i.i: ; preds = %11
  %16 = getelementptr inbounds nuw i8, ptr %4, i64 8
  %17 = load i64, ptr %16, align 8, !tbaa !43
  %18 = icmp ult i64 %17, 16
  call void @llvm.assume(i1 %18)
  br label %_ZNSt7__cxx1112basic_stringIcSt11char_traitsIcESaIcEED2Ev.exit

_ZNKSt7__cxx1112basic_stringIcSt11char_traitsIcESaIcEE11_M_is_localEv.exit.i.i: ; preds = %11
  call void @_ZdlPv(ptr noundef %13) #16
  br label %_ZNSt7__cxx1112basic_stringIcSt11char_traitsIcESaIcEED2Ev.exit

_ZNSt7__cxx1112basic_stringIcSt11char_traitsIcESaIcEED2Ev.exit: ; preds = %_ZNKSt7__cxx1112basic_stringIcSt11char_traitsIcESaIcEE11_M_is_localEv.exit.i.i, %_ZNKSt7__cxx1112basic_stringIcSt11char_traitsIcESaIcEE11_M_is_localEv.exit.thread.i.i
  call void @llvm.lifetime.end.p0(i64 1, ptr nonnull %5) #15
  call void @llvm.lifetime.end.p0(i64 32, ptr nonnull %4) #15
  resume { ptr, i32 } %12

19:                                               ; preds = %3
  %.not = icmp eq ptr %2, null
  br i1 %.not, label %._crit_edge, label %20

._crit_edge:                                      ; preds = %19
  %.pre = sext i32 %1 to i64
  br label %26

20:                                               ; preds = %19
  %21 = getelementptr inbounds nuw i8, ptr %0, i64 120
  %22 = sext i32 %1 to i64
  %23 = load ptr, ptr %21, align 8, !tbaa !27
  %24 = getelementptr inbounds nuw i32, ptr %23, i64 %22
  %25 = load i32, ptr %24, align 4, !tbaa !45
  store i32 %25, ptr %2, align 4, !tbaa !45
  br label %26

26:                                               ; preds = %._crit_edge, %20
  %.pre-phi = phi i64 [ %.pre, %._crit_edge ], [ %22, %20 ]
  %27 = getelementptr inbounds nuw i8, ptr %0, i64 40
  %28 = load ptr, ptr %27, align 8, !tbaa !48
  %29 = getelementptr inbounds nuw i8, ptr %0, i64 96
  %30 = load ptr, ptr %29, align 8, !tbaa !72
  %31 = load i64, ptr %30, align 8, !tbaa !50
  %32 = mul i64 %31, %.pre-phi
  %33 = getelementptr inbounds nuw i8, ptr %28, i64 %32
  ret ptr %33
}